; Function Attrs: nounwind uwtable
define dso_local range(i64 0, 2) i64 @pg_has_role_id_id(ptr noundef readonly captures(none) %0) local_unnamed_addr #0 {
  %2 = getelementptr inbounds nuw i8, ptr %0, i64 32
  %3 = load i64, ptr %2, align 8
  %4 = trunc i64 %3 to i32
  %5 = getelementptr inbounds nuw i8, ptr %0, i64 48
  %6 = load i64, ptr %5, align 8
  %7 = trunc i64 %6 to i32
  %8 = getelementptr inbounds nuw i8, ptr %0, i64 64
  %9 = load i64, ptr %8, align 8
  %10 = inttoptr i64 %9 to ptr
  %11 = tail call ptr @pg_detoast_datum_packed(ptr noundef %10) #14
  %12 = tail call fastcc i64 @convert_any_priv_string(ptr noundef %11, ptr noundef nonnull @convert_role_priv_string.role_priv_map)
  %13 = tail call fastcc i32 @pg_role_aclcheck(i32 noundef %7, i32 noundef %4, i64 noundef %12)
  %14 = xor i32 %13, 1
  %15 = zext nneg i32 %14 to i64
  ret i64 %15
}